; ModuleID = '51/150.c'
source_filename = "51/150.c"
target datalayout = "e-m:e-p270:32:32-p271:32:32-p272:64:64-i64:64-f80:128-n8:16:32:64-S128"
target triple = "x86_64-pc-linux-gnu"

@.str = private unnamed_addr constant [4 x i8] c"%d\0A\00", align 1
@.str.1 = private unnamed_addr constant [3 x i8] c"NO\00", align 1
@.str.2 = private unnamed_addr constant [4 x i8] c"%s\0A\00", align 1

; Function Attrs: noinline nounwind uwtable
define dso_local void @main() #0 {
  %1 = alloca i32, align 4
  %2 = alloca i32, align 4
  %3 = alloca i32, align 4
  %4 = alloca i32, align 4
  %5 = alloca i32, align 4
  %6 = alloca [501 x i8], align 16
  %7 = alloca [500 x [5 x i8]], align 16
  %8 = alloca [500 x i32], align 16
  %9 = call i32 (i8*, ...) @__isoc99_scanf(i8* getelementptr inbounds ([4 x i8], [4 x i8]* @.str, i64 0, i64 0), i32* %2)
  %10 = getelementptr inbounds [501 x i8], [501 x i8]* %6, i64 0, i64 0
  %11 = call i32 (i8*, ...) bitcast (i32 (...)* @gets to i32 (i8*, ...)*)(i8* %10)
  store i32 0, i32* %1, align 4
  store i32 0, i32* %5, align 4
  br label %12

12:                                               ; preds = %19, %0
  %13 = load i32, i32* %5, align 4
  %14 = sext i32 %13 to i64
  %15 = getelementptr inbounds [501 x i8], [501 x i8]* %6, i64 0, i64 %14
  %16 = load i8, i8* %15, align 1
  %17 = sext i8 %16 to i32
  %18 = icmp ne i32 %17, 0
  br i1 %18, label %19, label %22

19:                                               ; preds = %12
  %20 = load i32, i32* %5, align 4
  %21 = add nsw i32 %20, 1
  store i32 %21, i32* %5, align 4
  br label %12

22:                                               ; preds = %12
  store i32 0, i32* %3, align 4
  br label %23

23:                                               ; preds = %41, %22
  %24 = load i32, i32* %3, align 4
  %25 = icmp slt i32 %24, 500
  br i1 %25, label %26, label %44

26:                                               ; preds = %23
  store i32 0, i32* %4, align 4
  br label %27

27:                                               ; preds = %37, %26
  %28 = load i32, i32* %4, align 4
  %29 = icmp slt i32 %28, 5
  br i1 %29, label %30, label %40

30:                                               ; preds = %27
  %31 = load i32, i32* %3, align 4
  %32 = sext i32 %31 to i64
  %33 = getelementptr inbounds [500 x [5 x i8]], [500 x [5 x i8]]* %7, i64 0, i64 %32
  %34 = load i32, i32* %4, align 4
  %35 = sext i32 %34 to i64
  %36 = getelementptr inbounds [5 x i8], [5 x i8]* %33, i64 0, i64 %35
  store i8 0, i8* %36, align 1
  br label %37

37:                                               ; preds = %30
  %38 = load i32, i32* %4, align 4
  %39 = add nsw i32 %38, 1
  store i32 %39, i32* %4, align 4
  br label %27

40:                                               ; preds = %27
  br label %41

41:                                               ; preds = %40
  %42 = load i32, i32* %3, align 4
  %43 = add nsw i32 %42, 1
  store i32 %43, i32* %3, align 4
  br label %23

44:                                               ; preds = %23
  store i32 0, i32* %3, align 4
  br label %45

45:                                               ; preds = %77, %44
  %46 = load i32, i32* %3, align 4
  %47 = load i32, i32* %5, align 4
  %48 = load i32, i32* %2, align 4
  %49 = sub nsw i32 %47, %48
  %50 = add nsw i32 %49, 1
  %51 = icmp slt i32 %46, %50
  br i1 %51, label %52, label %80

52:                                               ; preds = %45
  %53 = load i32, i32* %3, align 4
  store i32 %53, i32* %4, align 4
  br label %54

54:                                               ; preds = %73, %52
  %55 = load i32, i32* %4, align 4
  %56 = load i32, i32* %3, align 4
  %57 = load i32, i32* %2, align 4
  %58 = add nsw i32 %56, %57
  %59 = icmp slt i32 %55, %58
  br i1 %59, label %60, label %76

60:                                               ; preds = %54
  %61 = load i32, i32* %4, align 4
  %62 = sext i32 %61 to i64
  %63 = getelementptr inbounds [501 x i8], [501 x i8]* %6, i64 0, i64 %62
  %64 = load i8, i8* %63, align 1
  %65 = load i32, i32* %3, align 4
  %66 = sext i32 %65 to i64
  %67 = getelementptr inbounds [500 x [5 x i8]], [500 x [5 x i8]]* %7, i64 0, i64 %66
  %68 = load i32, i32* %4, align 4
  %69 = load i32, i32* %3, align 4
  %70 = sub nsw i32 %68, %69
  %71 = sext i32 %70 to i64
  %72 = getelementptr inbounds [5 x i8], [5 x i8]* %67, i64 0, i64 %71
  store i8 %64, i8* %72, align 1
  br label %73

73:                                               ; preds = %60
  %74 = load i32, i32* %4, align 4
  %75 = add nsw i32 %74, 1
  store i32 %75, i32* %4, align 4
  br label %54

76:                                               ; preds = %54
  br label %77

77:                                               ; preds = %76
  %78 = load i32, i32* %3, align 4
  %79 = add nsw i32 %78, 1
  store i32 %79, i32* %3, align 4
  br label %45

80:                                               ; preds = %45
  store i32 0, i32* %3, align 4
  br label %81

81:                                               ; preds = %88, %80
  %82 = load i32, i32* %3, align 4
  %83 = icmp slt i32 %82, 500
  br i1 %83, label %84, label %91

84:                                               ; preds = %81
  %85 = load i32, i32* %3, align 4
  %86 = sext i32 %85 to i64
  %87 = getelementptr inbounds [500 x i32], [500 x i32]* %8, i64 0, i64 %86
  store i32 0, i32* %87, align 4
  br label %88

88:                                               ; preds = %84
  %89 = load i32, i32* %3, align 4
  %90 = add nsw i32 %89, 1
  store i32 %90, i32* %3, align 4
  br label %81

91:                                               ; preds = %81
  store i32 0, i32* %3, align 4
  br label %92

92:                                               ; preds = %130, %91
  %93 = load i32, i32* %3, align 4
  %94 = load i32, i32* %5, align 4
  %95 = load i32, i32* %2, align 4
  %96 = sub nsw i32 %94, %95
  %97 = sub nsw i32 %96, 1
  %98 = icmp slt i32 %93, %97
  br i1 %98, label %99, label %133

99:                                               ; preds = %92
  %100 = load i32, i32* %3, align 4
  store i32 %100, i32* %4, align 4
  br label %101

101:                                              ; preds = %126, %99
  %102 = load i32, i32* %4, align 4
  %103 = load i32, i32* %5, align 4
  %104 = load i32, i32* %2, align 4
  %105 = sub nsw i32 %103, %104
  %106 = add nsw i32 %105, 1
  %107 = icmp slt i32 %102, %106
  br i1 %107, label %108, label %129

108:                                              ; preds = %101
  %109 = load i32, i32* %4, align 4
  %110 = sext i32 %109 to i64
  %111 = getelementptr inbounds [500 x [5 x i8]], [500 x [5 x i8]]* %7, i64 0, i64 %110
  %112 = getelementptr inbounds [5 x i8], [5 x i8]* %111, i64 0, i64 0
  %113 = load i32, i32* %3, align 4
  %114 = sext i32 %113 to i64
  %115 = getelementptr inbounds [500 x [5 x i8]], [500 x [5 x i8]]* %7, i64 0, i64 %114
  %116 = getelementptr inbounds [5 x i8], [5 x i8]* %115, i64 0, i64 0
  %117 = call i32 @strcmp(i8* %112, i8* %116) #3
  %118 = icmp eq i32 %117, 0
  br i1 %118, label %119, label %125

119:                                              ; preds = %108
  %120 = load i32, i32* %3, align 4
  %121 = sext i32 %120 to i64
  %122 = getelementptr inbounds [500 x i32], [500 x i32]* %8, i64 0, i64 %121
  %123 = load i32, i32* %122, align 4
  %124 = add nsw i32 %123, 1
  store i32 %124, i32* %122, align 4
  br label %125

125:                                              ; preds = %119, %108
  br label %126

126:                                              ; preds = %125
  %127 = load i32, i32* %4, align 4
  %128 = add nsw i32 %127, 1
  store i32 %128, i32* %4, align 4
  br label %101

129:                                              ; preds = %101
  br label %130

130:                                              ; preds = %129
  %131 = load i32, i32* %3, align 4
  %132 = add nsw i32 %131, 1
  store i32 %132, i32* %3, align 4
  br label %92

133:                                              ; preds = %92
  store i32 0, i32* %3, align 4
  br label %134

134:                                              ; preds = %153, %133
  %135 = load i32, i32* %3, align 4
  %136 = load i32, i32* %5, align 4
  %137 = load i32, i32* %2, align 4
  %138 = sub nsw i32 %136, %137
  %139 = icmp slt i32 %135, %138
  br i1 %139, label %140, label %156

140:                                              ; preds = %134
  %141 = load i32, i32* %3, align 4
  %142 = sext i32 %141 to i64
  %143 = getelementptr inbounds [500 x i32], [500 x i32]* %8, i64 0, i64 %142
  %144 = load i32, i32* %143, align 4
  %145 = load i32, i32* %1, align 4
  %146 = icmp sgt i32 %144, %145
  br i1 %146, label %147, label %152

147:                                              ; preds = %140
  %148 = load i32, i32* %3, align 4
  %149 = sext i32 %148 to i64
  %150 = getelementptr inbounds [500 x i32], [500 x i32]* %8, i64 0, i64 %149
  %151 = load i32, i32* %150, align 4
  store i32 %151, i32* %1, align 4
  br label %152

152:                                              ; preds = %147, %140
  br label %153

153:                                              ; preds = %152
  %154 = load i32, i32* %3, align 4
  %155 = add nsw i32 %154, 1
  store i32 %155, i32* %3, align 4
  br label %134

156:                                              ; preds = %134
  %157 = load i32, i32* %1, align 4
  %158 = icmp eq i32 %157, 1
  br i1 %158, label %159, label %161

159:                                              ; preds = %156
  %160 = call i32 (i8*, ...) @printf(i8* getelementptr inbounds ([3 x i8], [3 x i8]* @.str.1, i64 0, i64 0))
  br label %188

161:                                              ; preds = %156
  %162 = load i32, i32* %1, align 4
  %163 = call i32 (i8*, ...) @printf(i8* getelementptr inbounds ([4 x i8], [4 x i8]* @.str, i64 0, i64 0), i32 %162)
  store i32 0, i32* %3, align 4
  br label %164

164:                                              ; preds = %184, %161
  %165 = load i32, i32* %3, align 4
  %166 = load i32, i32* %5, align 4
  %167 = load i32, i32* %2, align 4
  %168 = sub nsw i32 %166, %167
  %169 = icmp slt i32 %165, %168
  br i1 %169, label %170, label %187

170:                                              ; preds = %164
  %171 = load i32, i32* %3, align 4
  %172 = sext i32 %171 to i64
  %173 = getelementptr inbounds [500 x i32], [500 x i32]* %8, i64 0, i64 %172
  %174 = load i32, i32* %173, align 4
  %175 = load i32, i32* %1, align 4
  %176 = icmp eq i32 %174, %175
  br i1 %176, label %177, label %183

177:                                              ; preds = %170
  %178 = load i32, i32* %3, align 4
  %179 = sext i32 %178 to i64
  %180 = getelementptr inbounds [500 x [5 x i8]], [500 x [5 x i8]]* %7, i64 0, i64 %179
  %181 = getelementptr inbounds [5 x i8], [5 x i8]* %180, i64 0, i64 0
  %182 = call i32 (i8*, ...) @printf(i8* getelementptr inbounds ([4 x i8], [4 x i8]* @.str.2, i64 0, i64 0), i8* %181)
  br label %183

183:                                              ; preds = %177, %170
  br label %184

184:                                              ; preds = %183
  %185 = load i32, i32* %3, align 4
  %186 = add nsw i32 %185, 1
  store i32 %186, i32* %3, align 4
  br label %164

187:                                              ; preds = %164
  br label %188

188:                                              ; preds = %187, %159
  ret void
}

declare dso_local i32 @__isoc99_scanf(i8*, ...) #1

declare dso_local i32 @gets(...) #1

; Function Attrs: nounwind readonly
declare dso_local i32 @strcmp(i8*, i8*) #2

declare dso_local i32 @printf(i8*, ...) #1


!llvm.module.flags = !{!0}
!llvm.ident = !{!1}

!0 = !{i32 1, !"wchar_size", i32 4}
!1 = !{!"clang version 10.0.0-4ubuntu1 "}
